; Function Attrs: mustprogress uwtable
define noundef zeroext i1 @_ZN18ColoringRulesModel12importColorsE7QStringRS0_(ptr noundef nonnull align 8 dereferenceable(88) %0, ptr noundef nonnull %1, ptr nocapture noundef nonnull align 8 dereferenceable(24) %2) local_unnamed_addr #4 align 2 personality ptr @__gxx_personality_v0 {
  %4 = alloca ptr, align 8
  %5 = alloca %class.QByteArray, align 8
  %6 = alloca %class.QString, align 16
  store ptr null, ptr %4, align 8
  call void @_ZN7QString13toUtf8_helperERKS_(ptr dead_on_unwind nonnull writable sret(%class.QByteArray) align 8 %5, ptr noundef nonnull align 8 dereferenceable(24) %1)
  %7 = getelementptr inbounds i8, ptr %5, i64 8
  %8 = load ptr, ptr %7, align 8
  %.not.i.i = icmp eq ptr %8, null
  %spec.select.i.i = select i1 %.not.i.i, ptr @_ZN10QByteArray6_emptyE, ptr %8
  %9 = invoke i32 @color_filters_import(ptr noundef nonnull %spec.select.i.i, ptr noundef nonnull %0, ptr noundef nonnull %4, ptr noundef nonnull @color_filter_add_cb)
          to label %10 unwind label %29

10:                                               ; preds = %3
  %.not = icmp ne i32 %9, 0
  %11 = load ptr, ptr %5, align 8
  %.not.i.i.i = icmp eq ptr %11, null
  br i1 %.not.i.i.i, label %_ZN10QByteArrayD2Ev.exit, label %_ZN17QArrayDataPointerIcE5derefEv.exit.i.i

_ZN17QArrayDataPointerIcE5derefEv.exit.i.i:       ; preds = %10
  %12 = atomicrmw sub ptr %11, i32 1 seq_cst, align 4
  %.not.i.i4 = icmp eq i32 %12, 1
  br i1 %.not.i.i4, label %13, label %_ZN10QByteArrayD2Ev.exit

13:                                               ; preds = %_ZN17QArrayDataPointerIcE5derefEv.exit.i.i
  %14 = load ptr, ptr %5, align 8
  call void @_ZN10QArrayData10deallocateEPS_xx(ptr noundef %14, i64 noundef 1, i64 noundef 8) #18
  br label %_ZN10QByteArrayD2Ev.exit

_ZN10QByteArrayD2Ev.exit:                         ; preds = %10, %_ZN17QArrayDataPointerIcE5derefEv.exit.i.i, %13
  br i1 %.not, label %_ZN7QStringD2Ev.exit, label %15

15:                                               ; preds = %_ZN10QByteArrayD2Ev.exit
  %16 = load ptr, ptr %4, align 8
  call void @_Z21gchar_free_to_qstringPc(ptr dead_on_unwind nonnull writable sret(%class.QString) align 8 %6, ptr noundef %16)
  %17 = load ptr, ptr %2, align 8
  %18 = getelementptr inbounds i8, ptr %2, i64 8
  %19 = getelementptr inbounds i8, ptr %6, i64 8
  %20 = load ptr, ptr %18, align 8
  %21 = load <2 x ptr>, ptr %6, align 16
  store ptr %17, ptr %6, align 16
  store <2 x ptr> %21, ptr %2, align 8
  store ptr %20, ptr %19, align 8
  %22 = getelementptr inbounds i8, ptr %2, i64 16
  %23 = getelementptr inbounds i8, ptr %6, i64 16
  %24 = load i64, ptr %22, align 8
  %25 = load i64, ptr %23, align 16
  store i64 %25, ptr %22, align 8
  store i64 %24, ptr %23, align 16
  %.not.i.i.i5 = icmp eq ptr %17, null
  br i1 %.not.i.i.i5, label %_ZN7QStringD2Ev.exit, label %_ZN17QArrayDataPointerIDsE5derefEv.exit.i.i

_ZN17QArrayDataPointerIDsE5derefEv.exit.i.i:      ; preds = %15
  %26 = atomicrmw sub ptr %17, i32 1 seq_cst, align 4
  %.not.i.i6 = icmp eq i32 %26, 1
  br i1 %.not.i.i6, label %27, label %_ZN7QStringD2Ev.exit

27:                                               ; preds = %_ZN17QArrayDataPointerIDsE5derefEv.exit.i.i
  %28 = load ptr, ptr %6, align 16
  call void @_ZN10QArrayData10deallocateEPS_xx(ptr noundef %28, i64 noundef 2, i64 noundef 8) #18
  br label %_ZN7QStringD2Ev.exit

29:                                               ; preds = %3
  %30 = landingpad { ptr, i32 }
          cleanup
  %31 = load ptr, ptr %5, align 8
  %.not.i.i.i7 = icmp eq ptr %31, null
  br i1 %.not.i.i.i7, label %_ZN10QByteArrayD2Ev.exit10, label %_ZN17QArrayDataPointerIcE5derefEv.exit.i.i8

_ZN17QArrayDataPointerIcE5derefEv.exit.i.i8:      ; preds = %29
  %32 = atomicrmw sub ptr %31, i32 1 seq_cst, align 4
  %.not.i.i9 = icmp eq i32 %32, 1
  br i1 %.not.i.i9, label %33, label %_ZN10QByteArrayD2Ev.exit10

33:                                               ; preds = %_ZN17QArrayDataPointerIcE5derefEv.exit.i.i8
  %34 = load ptr, ptr %5, align 8
  call void @_ZN10QArrayData10deallocateEPS_xx(ptr noundef %34, i64 noundef 1, i64 noundef 8) #18
  br label %_ZN10QByteArrayD2Ev.exit10

_ZN10QByteArrayD2Ev.exit10:                       ; preds = %29, %_ZN17QArrayDataPointerIcE5derefEv.exit.i.i8, %33
  resume { ptr, i32 } %30

_ZN7QStringD2Ev.exit:                             ; preds = %27, %_ZN17QArrayDataPointerIDsE5derefEv.exit.i.i, %15, %_ZN10QByteArrayD2Ev.exit
  ret i1 %.not
}